target datalayout = "e-m:e-p270:32:32-p271:32:32-p272:64:64-i64:64-i128:128-f80:128-n8:16:32:64-S128"
target triple = "x86_64-pc-linux-gnu"

%struct.tm = type { i32, i32, i32, i32, i32, i32, i32, i32, i32, i64, ptr }

; Function Attrs: nounwind uwtable
define internal i32 @timestamp2tm(i64 noundef %0, ptr noundef %1, ptr noundef %2, ptr noundef %3, ptr noundef %4) #0 {
  %6 = alloca i32, align 4
  %7 = alloca i64, align 8
  %8 = alloca ptr, align 8
  %9 = alloca ptr, align 8
  %10 = alloca ptr, align 8
  %11 = alloca ptr, align 8
  %12 = alloca i64, align 8
  %13 = alloca i64, align 8
  %14 = alloca i64, align 8
  %15 = alloca i64, align 8
  %16 = alloca ptr, align 8
  %17 = alloca i32, align 4
  %18 = alloca %struct.tm, align 8
  store i64 %0, ptr %7, align 8
  store ptr %1, ptr %8, align 8
  store ptr %2, ptr %9, align 8
  store ptr %3, ptr %10, align 8
  store ptr %4, ptr %11, align 8
  call void @llvm.lifetime.start.p0(i64 8, ptr %12) #11
  call void @llvm.lifetime.start.p0(i64 8, ptr %13) #11
  call void @llvm.lifetime.start.p0(i64 8, ptr %14) #11
  call void @llvm.lifetime.start.p0(i64 8, ptr %15) #11
  call void @llvm.lifetime.start.p0(i64 8, ptr %16) #11
  %19 = call i32 @date2j(i32 noundef 2000, i32 noundef 1, i32 noundef 1)
  %20 = sext i32 %19 to i64
  store i64 %20, ptr %13, align 8
  %21 = load i64, ptr %7, align 8
  store i64 %21, ptr %14, align 8
  br label %22

22:                                               ; preds = %5
  %23 = load i64, ptr %14, align 8
  %24 = sdiv i64 %23, 86400000000
  store i64 %24, ptr %12, align 8
  %25 = load i64, ptr %12, align 8
  %26 = icmp ne i64 %25, 0
  br i1 %26, label %27, label %32

27:                                               ; preds = %22
  %28 = load i64, ptr %12, align 8
  %29 = mul i64 %28, 86400000000
  %30 = load i64, ptr %14, align 8
  %31 = sub i64 %30, %29
  store i64 %31, ptr %14, align 8
  br label %32

32:                                               ; preds = %27, %22
  br label %33

33:                                               ; preds = %32
  br label %34

34:                                               ; preds = %33
  %35 = load i64, ptr %14, align 8
  %36 = icmp slt i64 %35, 0
  br i1 %36, label %37, label %42

37:                                               ; preds = %34
  %38 = load i64, ptr %14, align 8
  %39 = add i64 %38, 86400000000
  store i64 %39, ptr %14, align 8
  %40 = load i64, ptr %12, align 8
  %41 = sub i64 %40, 1
  store i64 %41, ptr %12, align 8
  br label %42

42:                                               ; preds = %37, %34
  %43 = load i64, ptr %13, align 8
  %44 = load i64, ptr %12, align 8
  %45 = add i64 %44, %43
  store i64 %45, ptr %12, align 8
  %46 = load i64, ptr %12, align 8
  %47 = icmp slt i64 %46, 0
  br i1 %47, label %51, label %48

48:                                               ; preds = %42
  %49 = load i64, ptr %12, align 8
  %50 = icmp sgt i64 %49, 2147483647
  br i1 %50, label %51, label %52

51:                                               ; preds = %48, %42
  store i32 -1, ptr %6, align 4
  store i32 1, ptr %17, align 4
  br label %218

52:                                               ; preds = %48
  %53 = load i64, ptr %12, align 8
  %54 = trunc i64 %53 to i32
  %55 = load ptr, ptr %9, align 8
  %56 = getelementptr inbounds nuw %struct.tm, ptr %55, i32 0, i32 5
  %57 = load ptr, ptr %9, align 8
  %58 = getelementptr inbounds nuw %struct.tm, ptr %57, i32 0, i32 4
  %59 = load ptr, ptr %9, align 8
  %60 = getelementptr inbounds nuw %struct.tm, ptr %59, i32 0, i32 3
  call void @j2date(i32 noundef %54, ptr noundef %56, ptr noundef %58, ptr noundef %60)
  %61 = load i64, ptr %14, align 8
  %62 = sitofp i64 %61 to double
  %63 = load ptr, ptr %9, align 8
  %64 = getelementptr inbounds nuw %struct.tm, ptr %63, i32 0, i32 2
  %65 = load ptr, ptr %9, align 8
  %66 = getelementptr inbounds nuw %struct.tm, ptr %65, i32 0, i32 1
  %67 = load ptr, ptr %9, align 8
  %68 = getelementptr inbounds nuw %struct.tm, ptr %67, i32 0, i32 0
  %69 = load ptr, ptr %10, align 8
  call void @dt2time(double noundef %62, ptr noundef %64, ptr noundef %66, ptr noundef %68, ptr noundef %69)
  %70 = load ptr, ptr %8, align 8
  %71 = icmp ne ptr %70, null
  br i1 %71, label %72, label %198

72:                                               ; preds = %52
  %73 = load ptr, ptr %9, align 8
  %74 = getelementptr inbounds nuw %struct.tm, ptr %73, i32 0, i32 5
  %75 = load i32, ptr %74, align 4
  %76 = icmp sgt i32 %75, 1901
  br i1 %76, label %97, label %77

77:                                               ; preds = %72
  %78 = load ptr, ptr %9, align 8
  %79 = getelementptr inbounds nuw %struct.tm, ptr %78, i32 0, i32 5
  %80 = load i32, ptr %79, align 4
  %81 = icmp eq i32 %80, 1901
  br i1 %81, label %82, label %188

82:                                               ; preds = %77
  %83 = load ptr, ptr %9, align 8
  %84 = getelementptr inbounds nuw %struct.tm, ptr %83, i32 0, i32 4
  %85 = load i32, ptr %84, align 8
  %86 = icmp sgt i32 %85, 12
  br i1 %86, label %97, label %87

87:                                               ; preds = %82
  %88 = load ptr, ptr %9, align 8
  %89 = getelementptr inbounds nuw %struct.tm, ptr %88, i32 0, i32 4
  %90 = load i32, ptr %89, align 8
  %91 = icmp eq i32 %90, 12
  br i1 %91, label %92, label %188

92:                                               ; preds = %87
  %93 = load ptr, ptr %9, align 8
  %94 = getelementptr inbounds nuw %struct.tm, ptr %93, i32 0, i32 3
  %95 = load i32, ptr %94, align 4
  %96 = icmp sge i32 %95, 14
  br i1 %96, label %97, label %188

97:                                               ; preds = %92, %82, %72
  %98 = load ptr, ptr %9, align 8
  %99 = getelementptr inbounds nuw %struct.tm, ptr %98, i32 0, i32 5
  %100 = load i32, ptr %99, align 4
  %101 = icmp slt i32 %100, 2038
  br i1 %101, label %122, label %102

102:                                              ; preds = %97
  %103 = load ptr, ptr %9, align 8
  %104 = getelementptr inbounds nuw %struct.tm, ptr %103, i32 0, i32 5
  %105 = load i32, ptr %104, align 4
  %106 = icmp eq i32 %105, 2038
  br i1 %106, label %107, label %188

107:                                              ; preds = %102
  %108 = load ptr, ptr %9, align 8
  %109 = getelementptr inbounds nuw %struct.tm, ptr %108, i32 0, i32 4
  %110 = load i32, ptr %109, align 8
  %111 = icmp slt i32 %110, 1
  br i1 %111, label %122, label %112

112:                                              ; preds = %107
  %113 = load ptr, ptr %9, align 8
  %114 = getelementptr inbounds nuw %struct.tm, ptr %113, i32 0, i32 4
  %115 = load i32, ptr %114, align 8
  %116 = icmp eq i32 %115, 1
  br i1 %116, label %117, label %188

117:                                              ; preds = %112
  %118 = load ptr, ptr %9, align 8
  %119 = getelementptr inbounds nuw %struct.tm, ptr %118, i32 0, i32 3
  %120 = load i32, ptr %119, align 4
  %121 = icmp sle i32 %120, 18
  br i1 %121, label %122, label %188

122:                                              ; preds = %117, %107, %97
  call void @llvm.lifetime.start.p0(i64 56, ptr %18) #11
  %123 = load i64, ptr %7, align 8
  %124 = sdiv i64 %123, 1000000
  %125 = load i64, ptr %13, align 8
  %126 = call i32 @date2j(i32 noundef 1970, i32 noundef 1, i32 noundef 1)
  %127 = sext i32 %126 to i64
  %128 = sub i64 %125, %127
  %129 = mul i64 %128, 86400
  %130 = add i64 %124, %129
  store i64 %130, ptr %15, align 8
  %131 = call ptr @localtime_r(ptr noundef %15, ptr noundef %18) #11
  store ptr %131, ptr %16, align 8
  %132 = load ptr, ptr %16, align 8
  %133 = getelementptr inbounds nuw %struct.tm, ptr %132, i32 0, i32 5
  %134 = load i32, ptr %133, align 4
  %135 = add i32 %134, 1900
  %136 = load ptr, ptr %9, align 8
  %137 = getelementptr inbounds nuw %struct.tm, ptr %136, i32 0, i32 5
  store i32 %135, ptr %137, align 4
  %138 = load ptr, ptr %16, align 8
  %139 = getelementptr inbounds nuw %struct.tm, ptr %138, i32 0, i32 4
  %140 = load i32, ptr %139, align 8
  %141 = add i32 %140, 1
  %142 = load ptr, ptr %9, align 8
  %143 = getelementptr inbounds nuw %struct.tm, ptr %142, i32 0, i32 4
  store i32 %141, ptr %143, align 8
  %144 = load ptr, ptr %16, align 8
  %145 = getelementptr inbounds nuw %struct.tm, ptr %144, i32 0, i32 3
  %146 = load i32, ptr %145, align 4
  %147 = load ptr, ptr %9, align 8
  %148 = getelementptr inbounds nuw %struct.tm, ptr %147, i32 0, i32 3
  store i32 %146, ptr %148, align 4
  %149 = load ptr, ptr %16, align 8
  %150 = getelementptr inbounds nuw %struct.tm, ptr %149, i32 0, i32 2
  %151 = load i32, ptr %150, align 8
  %152 = load ptr, ptr %9, align 8
  %153 = getelementptr inbounds nuw %struct.tm, ptr %152, i32 0, i32 2
  store i32 %151, ptr %153, align 8
  %154 = load ptr, ptr %16, align 8
  %155 = getelementptr inbounds nuw %struct.tm, ptr %154, i32 0, i32 1
  %156 = load i32, ptr %155, align 4
  %157 = load ptr, ptr %9, align 8
  %158 = getelementptr inbounds nuw %struct.tm, ptr %157, i32 0, i32 1
  store i32 %156, ptr %158, align 4
  %159 = load ptr, ptr %16, align 8
  %160 = getelementptr inbounds nuw %struct.tm, ptr %159, i32 0, i32 8
  %161 = load i32, ptr %160, align 8
  %162 = load ptr, ptr %9, align 8
  %163 = getelementptr inbounds nuw %struct.tm, ptr %162, i32 0, i32 8
  store i32 %161, ptr %163, align 8
  %164 = load ptr, ptr %16, align 8
  %165 = getelementptr inbounds nuw %struct.tm, ptr %164, i32 0, i32 9
  %166 = load i64, ptr %165, align 8
  %167 = load ptr, ptr %9, align 8
  %168 = getelementptr inbounds nuw %struct.tm, ptr %167, i32 0, i32 9
  store i64 %166, ptr %168, align 8
  %169 = load ptr, ptr %16, align 8
  %170 = getelementptr inbounds nuw %struct.tm, ptr %169, i32 0, i32 10
  %171 = load ptr, ptr %170, align 8
  %172 = load ptr, ptr %9, align 8
  %173 = getelementptr inbounds nuw %struct.tm, ptr %172, i32 0, i32 10
  store ptr %171, ptr %173, align 8
  %174 = load ptr, ptr %9, align 8
  %175 = getelementptr inbounds nuw %struct.tm, ptr %174, i32 0, i32 9
  %176 = load i64, ptr %175, align 8
  %177 = sub i64 0, %176
  %178 = trunc i64 %177 to i32
  %179 = load ptr, ptr %8, align 8
  store i32 %178, ptr %179, align 4
  %180 = load ptr, ptr %11, align 8
  %181 = icmp ne ptr %180, null
  br i1 %181, label %182, label %187

182:                                              ; preds = %122
  %183 = load ptr, ptr %9, align 8
  %184 = getelementptr inbounds nuw %struct.tm, ptr %183, i32 0, i32 10
  %185 = load ptr, ptr %184, align 8
  %186 = load ptr, ptr %11, align 8
  store ptr %185, ptr %186, align 8
  br label %187

187:                                              ; preds = %182, %122
  call void @llvm.lifetime.end.p0(i64 56, ptr %18) #11
  br label %197

188:                                              ; preds = %117, %112, %102, %92, %87, %77
  %189 = load ptr, ptr %8, align 8
  store i32 0, ptr %189, align 4
  %190 = load ptr, ptr %9, align 8
  %191 = getelementptr inbounds nuw %struct.tm, ptr %190, i32 0, i32 8
  store i32 -1, ptr %191, align 8
  %192 = load ptr, ptr %11, align 8
  %193 = icmp ne ptr %192, null
  br i1 %193, label %194, label %196

194:                                              ; preds = %188
  %195 = load ptr, ptr %11, align 8
  store ptr null, ptr %195, align 8
  br label %196

196:                                              ; preds = %194, %188
  br label %197

197:                                              ; preds = %196, %187
  br label %206

198:                                              ; preds = %52
  %199 = load ptr, ptr %9, align 8
  %200 = getelementptr inbounds nuw %struct.tm, ptr %199, i32 0, i32 8
  store i32 -1, ptr %200, align 8
  %201 = load ptr, ptr %11, align 8
  %202 = icmp ne ptr %201, null
  br i1 %202, label %203, label %205

203:                                              ; preds = %198
  %204 = load ptr, ptr %11, align 8
  store ptr null, ptr %204, align 8
  br label %205

205:                                              ; preds = %203, %198
  br label %206

206:                                              ; preds = %205, %197
  %207 = load i64, ptr %12, align 8
  %208 = load ptr, ptr %9, align 8
  %209 = getelementptr inbounds nuw %struct.tm, ptr %208, i32 0, i32 5
  %210 = load i32, ptr %209, align 4
  %211 = call i32 @date2j(i32 noundef %210, i32 noundef 1, i32 noundef 1)
  %212 = sext i32 %211 to i64
  %213 = sub i64 %207, %212
  %214 = add i64 %213, 1
  %215 = trunc i64 %214 to i32
  %216 = load ptr, ptr %9, align 8
  %217 = getelementptr inbounds nuw %struct.tm, ptr %216, i32 0, i32 7
  store i32 %215, ptr %217, align 4
  store i32 0, ptr %6, align 4
  store i32 1, ptr %17, align 4
  br label %218

218:                                              ; preds = %206, %51
  call void @llvm.lifetime.end.p0(i64 8, ptr %16) #11
  call void @llvm.lifetime.end.p0(i64 8, ptr %15) #11
  call void @llvm.lifetime.end.p0(i64 8, ptr %14) #11
  call void @llvm.lifetime.end.p0(i64 8, ptr %13) #11
  call void @llvm.lifetime.end.p0(i64 8, ptr %12) #11
  %219 = load i32, ptr %6, align 4
  ret i32 %219
}