; Function Attrs: nounwind uwtable
define internal fastcc range(i32 -1, 1) i32 @timestamp2tm(i64 noundef %0, ptr noundef nonnull %1, ptr noundef nonnull %2) unnamed_addr #0 {
  %4 = tail call i32 @date2j(i32 noundef 2000, i32 noundef 1, i32 noundef 1) #10
  %5 = sext i32 %4 to i64
  %6 = sdiv i64 %0, 86400000000
  %.off = add i64 %0, 86399999999
  %.not = icmp ult i64 %.off, 172799999999
  %.neg = mul nsw i64 %6, -86400000000
  %7 = select i1 %.not, i64 0, i64 %.neg
  %.066 = add i64 %7, %0
  %.066.lobit = ashr i64 %.066, 63
  %.067 = add nsw i64 %.066.lobit, %6
  %8 = add nsw i64 %.067, %5
  %or.cond = icmp ugt i64 %8, 2147483647
  br i1 %or.cond, label %25, label %9

9:                                                ; preds = %3
  %10 = icmp slt i64 %.066, 0
  %11 = add nsw i64 %.066, 86400000000
  %.1 = select i1 %10, i64 %11, i64 %.066
  %12 = trunc nuw nsw i64 %8 to i32
  %13 = getelementptr inbounds nuw i8, ptr %1, i64 20
  %14 = getelementptr inbounds nuw i8, ptr %1, i64 16
  %15 = getelementptr inbounds nuw i8, ptr %1, i64 12
  tail call void @j2date(i32 noundef %12, ptr noundef nonnull %13, ptr noundef nonnull %14, ptr noundef nonnull %15) #10
  %16 = sitofp i64 %.1 to double
  %17 = getelementptr inbounds nuw i8, ptr %1, i64 8
  %18 = getelementptr inbounds nuw i8, ptr %1, i64 4
  tail call void @dt2time(double noundef %16, ptr noundef nonnull %17, ptr noundef nonnull %18, ptr noundef nonnull %1, ptr noundef nonnull %2) #10
  %19 = getelementptr inbounds nuw i8, ptr %1, i64 32
  store i32 -1, ptr %19, align 8
  %20 = load i32, ptr %13, align 4
  %21 = tail call i32 @date2j(i32 noundef %20, i32 noundef 1, i32 noundef 1) #10
  %22 = add nuw i32 %12, 1
  %23 = sub i32 %22, %21
  %24 = getelementptr inbounds nuw i8, ptr %1, i64 28
  store i32 %23, ptr %24, align 4
  br label %25

25:                                               ; preds = %3, %9
  %.0 = phi i32 [ 0, %9 ], [ -1, %3 ]
  ret i32 %.0
}